target datalayout = "e-m:e-p270:32:32-p271:32:32-p272:64:64-i64:64-i128:128-f80:128-n8:16:32:64-S128"
target triple = "x86_64-pc-linux-gnu"

%struct.AVCodecContext = type { ptr, i32, i32, ptr, i32, i32, ptr, ptr, ptr, i64, i32, i32, ptr, i32, %struct.AVRational, %struct.AVRational, %struct.AVRational, i32, i32, i32, i32, i32, %struct.AVRational, i32, i32, i32, i32, i32, i32, i32, i32, i32, i32, i32, ptr, ptr, i32, float, float, float, float, float, float, float, float, float, i32, i32, i32, i32, i32, i32, i32, i32, i32, i32, i32, i32, ptr, ptr, ptr, i32, i32, i32, i32, i32, i32, i32, i32, i32, i32, %struct.AVChannelLayout, i32, i32, i32, i32, i32, i32, i32, i32, ptr, i32, i32, i32, float, float, i32, i32, i32, i32, i32, ptr, i64, i64, float, float, i32, i32, ptr, ptr, i32, i32, i32, i32, i32, ptr, ptr, ptr, ptr, i32, i32, [8 x i64], i32, i32, i32, i32, i32, i32, i32, ptr, ptr, i32, i32, i32, i32, i32, i32, i32, i32, i32, i32, ptr, ptr, i32, i32, ptr, ptr, ptr, ptr, i32, i32, i64, i32, i32, i64, ptr, i64, ptr, i32, ptr, i32 }
%struct.AVRational = type { i32, i32 }
%struct.AVChannelLayout = type { i32, i32, %union.anon.1, ptr }
%union.anon.1 = type { i64 }
%struct.DVBSubContext = type { ptr, i32, i32, i32, i32, i32, i32, [257 x [256 x i32]], i32, i64, ptr, ptr, ptr, ptr, ptr }

@dvbsub_init_decoder.init_static_once = internal global i32 0, align 4
@.str.11 = private unnamed_addr constant [41 x i8] c"Invalid DVB subtitles stream extradata!\0A\00", align 1
@.str.12 = private unnamed_addr constant [55 x i8] c"Selected DVB subtitles sub-stream %d is not available\0A\00", align 1

; Function Attrs: alwaysinline nounwind willreturn memory(none) uwtable
define internal zeroext i16 @av_bswap16(i16 noundef zeroext %0) #4 {
  %2 = alloca i16, align 2
  store i16 %0, ptr %2, align 2, !tbaa !72
  %3 = load i16, ptr %2, align 2, !tbaa !72
  %4 = zext i16 %3 to i32
  %5 = ashr i32 %4, 8
  %6 = load i16, ptr %2, align 2, !tbaa !72
  %7 = zext i16 %6 to i32
  %8 = shl i32 %7, 8
  %9 = or i32 %5, %8
  %10 = trunc i32 %9 to i16
  store i16 %10, ptr %2, align 2, !tbaa !72
  %11 = load i16, ptr %2, align 2, !tbaa !72
  ret i16 %11
}

; Function Attrs: cold nounwind optsize uwtable
define internal i32 @dvbsub_init_decoder(ptr noundef %0) #0 {
  %2 = alloca ptr, align 8
  %3 = alloca ptr, align 8
  store ptr %0, ptr %2, align 8, !tbaa !4
  call void @llvm.lifetime.start.p0(i64 8, ptr %3) #11
  %4 = load ptr, ptr %2, align 8, !tbaa !4
  %5 = getelementptr inbounds nuw %struct.AVCodecContext, ptr %4, i32 0, i32 6
  %6 = load ptr, ptr %5, align 8, !tbaa !9
  store ptr %6, ptr %3, align 8, !tbaa !29
  %7 = load ptr, ptr %3, align 8, !tbaa !29
  %8 = getelementptr inbounds nuw %struct.DVBSubContext, ptr %7, i32 0, i32 8
  %9 = load i32, ptr %8, align 8, !tbaa !31
  %10 = icmp slt i32 %9, 0
  br i1 %10, label %11, label %16

11:                                               ; preds = %1
  %12 = load ptr, ptr %3, align 8, !tbaa !29
  %13 = getelementptr inbounds nuw %struct.DVBSubContext, ptr %12, i32 0, i32 1
  store i32 -1, ptr %13, align 8, !tbaa !38
  %14 = load ptr, ptr %3, align 8, !tbaa !29
  %15 = getelementptr inbounds nuw %struct.DVBSubContext, ptr %14, i32 0, i32 2
  store i32 -1, ptr %15, align 4, !tbaa !39
  br label %107

16:                                               ; preds = %1
  %17 = load ptr, ptr %2, align 8, !tbaa !4
  %18 = getelementptr inbounds nuw %struct.AVCodecContext, ptr %17, i32 0, i32 12
  %19 = load ptr, ptr %18, align 8, !tbaa !40
  %20 = icmp ne ptr %19, null
  br i1 %20, label %21, label %37

21:                                               ; preds = %16
  %22 = load ptr, ptr %2, align 8, !tbaa !4
  %23 = getelementptr inbounds nuw %struct.AVCodecContext, ptr %22, i32 0, i32 13
  %24 = load i32, ptr %23, align 8, !tbaa !41
  %25 = icmp slt i32 %24, 4
  br i1 %25, label %37, label %26

26:                                               ; preds = %21
  %27 = load ptr, ptr %2, align 8, !tbaa !4
  %28 = getelementptr inbounds nuw %struct.AVCodecContext, ptr %27, i32 0, i32 13
  %29 = load i32, ptr %28, align 8, !tbaa !41
  %30 = srem i32 %29, 5
  %31 = icmp ne i32 %30, 0
  br i1 %31, label %32, label %43

32:                                               ; preds = %26
  %33 = load ptr, ptr %2, align 8, !tbaa !4
  %34 = getelementptr inbounds nuw %struct.AVCodecContext, ptr %33, i32 0, i32 13
  %35 = load i32, ptr %34, align 8, !tbaa !41
  %36 = icmp ne i32 %35, 4
  br i1 %36, label %37, label %43

37:                                               ; preds = %32, %21, %16
  %38 = load ptr, ptr %2, align 8, !tbaa !4
  call void (ptr, i32, ptr, ...) @av_log(ptr noundef %38, i32 noundef 24, ptr noundef @.str.11)
  %39 = load ptr, ptr %3, align 8, !tbaa !29
  %40 = getelementptr inbounds nuw %struct.DVBSubContext, ptr %39, i32 0, i32 1
  store i32 -1, ptr %40, align 8, !tbaa !38
  %41 = load ptr, ptr %3, align 8, !tbaa !29
  %42 = getelementptr inbounds nuw %struct.DVBSubContext, ptr %41, i32 0, i32 2
  store i32 -1, ptr %42, align 4, !tbaa !39
  br label %106

43:                                               ; preds = %32, %26
  %44 = load ptr, ptr %2, align 8, !tbaa !4
  %45 = getelementptr inbounds nuw %struct.AVCodecContext, ptr %44, i32 0, i32 13
  %46 = load i32, ptr %45, align 8, !tbaa !41
  %47 = load ptr, ptr %3, align 8, !tbaa !29
  %48 = getelementptr inbounds nuw %struct.DVBSubContext, ptr %47, i32 0, i32 8
  %49 = load i32, ptr %48, align 8, !tbaa !31
  %50 = mul nsw i32 5, %49
  %51 = add nsw i32 %50, 2
  %52 = icmp sgt i32 %46, %51
  br i1 %52, label %53, label %83

53:                                               ; preds = %43
  %54 = load ptr, ptr %2, align 8, !tbaa !4
  %55 = getelementptr inbounds nuw %struct.AVCodecContext, ptr %54, i32 0, i32 12
  %56 = load ptr, ptr %55, align 8, !tbaa !40
  %57 = load ptr, ptr %3, align 8, !tbaa !29
  %58 = getelementptr inbounds nuw %struct.DVBSubContext, ptr %57, i32 0, i32 8
  %59 = load i32, ptr %58, align 8, !tbaa !31
  %60 = mul nsw i32 5, %59
  %61 = sext i32 %60 to i64
  %62 = getelementptr inbounds i8, ptr %56, i64 %61
  %63 = load i16, ptr %62, align 1, !tbaa !42
  %64 = call zeroext i16 @av_bswap16(i16 noundef zeroext %63) #12
  %65 = zext i16 %64 to i32
  %66 = load ptr, ptr %3, align 8, !tbaa !29
  %67 = getelementptr inbounds nuw %struct.DVBSubContext, ptr %66, i32 0, i32 1
  store i32 %65, ptr %67, align 8, !tbaa !38
  %68 = load ptr, ptr %2, align 8, !tbaa !4
  %69 = getelementptr inbounds nuw %struct.AVCodecContext, ptr %68, i32 0, i32 12
  %70 = load ptr, ptr %69, align 8, !tbaa !40
  %71 = load ptr, ptr %3, align 8, !tbaa !29
  %72 = getelementptr inbounds nuw %struct.DVBSubContext, ptr %71, i32 0, i32 8
  %73 = load i32, ptr %72, align 8, !tbaa !31
  %74 = mul nsw i32 5, %73
  %75 = sext i32 %74 to i64
  %76 = getelementptr inbounds i8, ptr %70, i64 %75
  %77 = getelementptr inbounds i8, ptr %76, i64 2
  %78 = load i16, ptr %77, align 1, !tbaa !42
  %79 = call zeroext i16 @av_bswap16(i16 noundef zeroext %78) #12
  %80 = zext i16 %79 to i32
  %81 = load ptr, ptr %3, align 8, !tbaa !29
  %82 = getelementptr inbounds nuw %struct.DVBSubContext, ptr %81, i32 0, i32 2
  store i32 %80, ptr %82, align 4, !tbaa !39
  br label %105

83:                                               ; preds = %43
  %84 = load ptr, ptr %2, align 8, !tbaa !4
  %85 = load ptr, ptr %3, align 8, !tbaa !29
  %86 = getelementptr inbounds nuw %struct.DVBSubContext, ptr %85, i32 0, i32 8
  %87 = load i32, ptr %86, align 8, !tbaa !31
  call void (ptr, i32, ptr, ...) @av_log(ptr noundef %84, i32 noundef 24, ptr noundef @.str.12, i32 noundef %87)
  %88 = load ptr, ptr %2, align 8, !tbaa !4
  %89 = getelementptr inbounds nuw %struct.AVCodecContext, ptr %88, i32 0, i32 12
  %90 = load ptr, ptr %89, align 8, !tbaa !40
  %91 = load i16, ptr %90, align 1, !tbaa !42
  %92 = call zeroext i16 @av_bswap16(i16 noundef zeroext %91) #12
  %93 = zext i16 %92 to i32
  %94 = load ptr, ptr %3, align 8, !tbaa !29
  %95 = getelementptr inbounds nuw %struct.DVBSubContext, ptr %94, i32 0, i32 1
  store i32 %93, ptr %95, align 8, !tbaa !38
  %96 = load ptr, ptr %2, align 8, !tbaa !4
  %97 = getelementptr inbounds nuw %struct.AVCodecContext, ptr %96, i32 0, i32 12
  %98 = load ptr, ptr %97, align 8, !tbaa !40
  %99 = getelementptr inbounds i8, ptr %98, i64 2
  %100 = load i16, ptr %99, align 1, !tbaa !42
  %101 = call zeroext i16 @av_bswap16(i16 noundef zeroext %100) #12
  %102 = zext i16 %101 to i32
  %103 = load ptr, ptr %3, align 8, !tbaa !29
  %104 = getelementptr inbounds nuw %struct.DVBSubContext, ptr %103, i32 0, i32 2
  store i32 %102, ptr %104, align 4, !tbaa !39
  br label %105

105:                                              ; preds = %83, %53
  br label %106

106:                                              ; preds = %105, %37
  br label %107

107:                                              ; preds = %106, %11
  %108 = load ptr, ptr %3, align 8, !tbaa !29
  %109 = getelementptr inbounds nuw %struct.DVBSubContext, ptr %108, i32 0, i32 3
  store i32 -1, ptr %109, align 8, !tbaa !43
  %110 = load ptr, ptr %3, align 8, !tbaa !29
  %111 = getelementptr inbounds nuw %struct.DVBSubContext, ptr %110, i32 0, i32 9
  store i64 -9223372036854775808, ptr %111, align 8, !tbaa !44
  %112 = call i32 @pthread_once(ptr noundef @dvbsub_init_decoder.init_static_once, ptr noundef @init_default_clut)
  call void @llvm.lifetime.end.p0(i64 8, ptr %3) #11
  ret i32 0
}