; Function Attrs: cold nounwind optsize uwtable
define internal noundef i32 @dvbsub_init_decoder(ptr noundef %0) #0 {
  %2 = getelementptr inbounds nuw i8, ptr %0, i64 32
  %3 = load ptr, ptr %2, align 8, !tbaa !4
  %4 = getelementptr inbounds nuw i8, ptr %3, i64 263200
  %5 = load i32, ptr %4, align 8, !tbaa !27
  %6 = icmp slt i32 %5, 0
  br i1 %6, label %7, label %10

7:                                                ; preds = %1
  %8 = getelementptr inbounds nuw i8, ptr %3, i64 8
  store i32 -1, ptr %8, align 8, !tbaa !34
  %9 = getelementptr inbounds nuw i8, ptr %3, i64 12
  store i32 -1, ptr %9, align 4, !tbaa !35
  br label %47

10:                                               ; preds = %1
  %11 = getelementptr inbounds nuw i8, ptr %0, i64 72
  %12 = load ptr, ptr %11, align 8, !tbaa !36
  %.not = icmp eq ptr %12, null
  br i1 %.not, label %19, label %13

13:                                               ; preds = %10
  %14 = getelementptr inbounds nuw i8, ptr %0, i64 80
  %15 = load i32, ptr %14, align 8, !tbaa !37
  %16 = icmp slt i32 %15, 4
  br i1 %16, label %19, label %17

17:                                               ; preds = %13
  %18 = urem i32 %15, 5
  %.not27 = icmp eq i32 %18, 0
  %.not28 = icmp eq i32 %15, 4
  %or.cond = or i1 %.not28, %.not27
  br i1 %or.cond, label %22, label %19

19:                                               ; preds = %17, %13, %10
  tail call void (ptr, i32, ptr, ...) @av_log(ptr noundef nonnull %0, i32 noundef 24, ptr noundef nonnull @.str.11) #10
  %20 = getelementptr inbounds nuw i8, ptr %3, i64 8
  store i32 -1, ptr %20, align 8, !tbaa !34
  %21 = getelementptr inbounds nuw i8, ptr %3, i64 12
  store i32 -1, ptr %21, align 4, !tbaa !35
  br label %47

22:                                               ; preds = %17
  %23 = mul nuw nsw i32 %5, 5
  %24 = add nuw nsw i32 %23, 2
  %25 = icmp samesign ugt i32 %15, %24
  %26 = getelementptr inbounds nuw i8, ptr %3, i64 8
  %27 = getelementptr inbounds nuw i8, ptr %3, i64 12
  br i1 %25, label %28, label %38

28:                                               ; preds = %22
  %29 = zext nneg i32 %23 to i64
  %30 = getelementptr inbounds nuw i8, ptr %12, i64 %29
  %31 = load i16, ptr %30, align 1, !tbaa !38
  %32 = tail call i16 @llvm.bswap.i16(i16 %31)
  %33 = zext i16 %32 to i32
  store i32 %33, ptr %26, align 8, !tbaa !34
  %34 = getelementptr inbounds nuw i8, ptr %30, i64 2
  %35 = load i16, ptr %34, align 1, !tbaa !38
  %36 = tail call i16 @llvm.bswap.i16(i16 %35)
  %37 = zext i16 %36 to i32
  store i32 %37, ptr %27, align 4, !tbaa !35
  br label %47

38:                                               ; preds = %22
  tail call void (ptr, i32, ptr, ...) @av_log(ptr noundef nonnull %0, i32 noundef 24, ptr noundef nonnull @.str.12, i32 noundef %5) #10
  %39 = load ptr, ptr %11, align 8, !tbaa !36
  %40 = load i16, ptr %39, align 1, !tbaa !38
  %41 = tail call i16 @llvm.bswap.i16(i16 %40)
  %42 = zext i16 %41 to i32
  store i32 %42, ptr %26, align 8, !tbaa !34
  %43 = getelementptr inbounds nuw i8, ptr %39, i64 2
  %44 = load i16, ptr %43, align 1, !tbaa !38
  %45 = tail call i16 @llvm.bswap.i16(i16 %44)
  %46 = zext i16 %45 to i32
  store i32 %46, ptr %27, align 4, !tbaa !35
  br label %47

47:                                               ; preds = %19, %38, %28, %7
  %48 = getelementptr inbounds nuw i8, ptr %3, i64 16
  store i32 -1, ptr %48, align 8, !tbaa !39
  %49 = getelementptr inbounds nuw i8, ptr %3, i64 263208
  store i64 -9223372036854775808, ptr %49, align 8, !tbaa !40
  %50 = tail call i32 @pthread_once(ptr noundef nonnull @dvbsub_init_decoder.init_static_once, ptr noundef nonnull @init_default_clut) #10
  ret i32 0
}